; Function Attrs: mustprogress uwtable
define dso_local noundef i32 @_ZNK4Json17ValueIteratorBase5indexEv(ptr nocapture noundef nonnull readonly align 8 dereferenceable(9) %0) local_unnamed_addr #2 align 2 personality ptr @__gxx_personality_v0 {
  %2 = alloca %"class.Json::Value::CZString", align 8
  %3 = load ptr, ptr %0, align 8
  %4 = getelementptr inbounds i8, ptr %3, i64 32
  call void @_ZN4Json5Value8CZStringC2ERKS1_(ptr noundef nonnull align 8 dereferenceable(12) %2, ptr noundef nonnull align 8 dereferenceable(12) %4)
  %5 = load ptr, ptr %2, align 8
  %.not = icmp eq ptr %5, null
  %6 = getelementptr inbounds i8, ptr %2, i64 8
  %7 = load i32, ptr %6, align 8
  br i1 %.not, label %_ZN4Json5Value8CZStringD2Ev.exit, label %8

8:                                                ; preds = %1
  %9 = and i32 %7, 3
  %10 = icmp eq i32 %9, 1
  br i1 %10, label %11, label %_ZN4Json5Value8CZStringD2Ev.exit

11:                                               ; preds = %8
  tail call void @free(ptr noundef nonnull %5) #39
  br label %_ZN4Json5Value8CZStringD2Ev.exit

_ZN4Json5Value8CZStringD2Ev.exit:                 ; preds = %1, %8, %11
  %.02 = phi i32 [ -1, %8 ], [ -1, %11 ], [ %7, %1 ]
  ret i32 %.02
}